; ModuleID = '29/1717.c'
source_filename = "29/1717.c"
target datalayout = "e-m:e-p270:32:32-p271:32:32-p272:64:64-i64:64-f80:128-n8:16:32:64-S128"
target triple = "x86_64-pc-linux-gnu"

@.str = private unnamed_addr constant [3 x i8] c"%d\00", align 1
@.str.1 = private unnamed_addr constant [6 x i8] c"%.3f\0A\00", align 1

; Function Attrs: noinline nounwind uwtable
define dso_local i32 @main(i32 %0, i8** %1) #0 {
  %3 = alloca i32, align 4
  %4 = alloca i32, align 4
  %5 = alloca i8**, align 8
  %6 = alloca i32, align 4
  %7 = alloca [100 x i32], align 16
  %8 = alloca i32, align 4
  %9 = alloca i32, align 4
  %10 = alloca [100 x float], align 16
  %11 = alloca [100 x float], align 16
  %12 = alloca float, align 4
  store i32 0, i32* %3, align 4
  store i32 %0, i32* %4, align 4
  store i8** %1, i8*** %5, align 8
  %13 = call i32 (i8*, ...) @__isoc99_scanf(i8* getelementptr inbounds ([3 x i8], [3 x i8]* @.str, i64 0, i64 0), i32* %6)
  store i32 0, i32* %8, align 4
  br label %14

14:                                               ; preds = %88, %2
  %15 = load i32, i32* %8, align 4
  %16 = load i32, i32* %6, align 4
  %17 = sub nsw i32 %16, 1
  %18 = icmp sle i32 %15, %17
  br i1 %18, label %19, label %91

19:                                               ; preds = %14
  %20 = load i32, i32* %8, align 4
  %21 = sext i32 %20 to i64
  %22 = getelementptr inbounds [100 x i32], [100 x i32]* %7, i64 0, i64 %21
  %23 = call i32 (i8*, ...) @__isoc99_scanf(i8* getelementptr inbounds ([3 x i8], [3 x i8]* @.str, i64 0, i64 0), i32* %22)
  %24 = getelementptr inbounds [100 x float], [100 x float]* %10, i64 0, i64 0
  store float 2.000000e+00, float* %24, align 16
  %25 = getelementptr inbounds [100 x float], [100 x float]* %11, i64 0, i64 0
  store float 1.000000e+00, float* %25, align 16
  store i32 1, i32* %9, align 4
  br label %26

26:                                               ; preds = %57, %19
  %27 = load i32, i32* %9, align 4
  %28 = load i32, i32* %8, align 4
  %29 = sext i32 %28 to i64
  %30 = getelementptr inbounds [100 x i32], [100 x i32]* %7, i64 0, i64 %29
  %31 = load i32, i32* %30, align 4
  %32 = sub nsw i32 %31, 1
  %33 = icmp sle i32 %27, %32
  br i1 %33, label %34, label %60

34:                                               ; preds = %26
  %35 = load i32, i32* %9, align 4
  %36 = sub nsw i32 %35, 1
  %37 = sext i32 %36 to i64
  %38 = getelementptr inbounds [100 x float], [100 x float]* %10, i64 0, i64 %37
  %39 = load float, float* %38, align 4
  %40 = load i32, i32* %9, align 4
  %41 = sub nsw i32 %40, 1
  %42 = sext i32 %41 to i64
  %43 = getelementptr inbounds [100 x float], [100 x float]* %11, i64 0, i64 %42
  %44 = load float, float* %43, align 4
  %45 = fadd float %39, %44
  %46 = load i32, i32* %9, align 4
  %47 = sext i32 %46 to i64
  %48 = getelementptr inbounds [100 x float], [100 x float]* %10, i64 0, i64 %47
  store float %45, float* %48, align 4
  %49 = load i32, i32* %9, align 4
  %50 = sub nsw i32 %49, 1
  %51 = sext i32 %50 to i64
  %52 = getelementptr inbounds [100 x float], [100 x float]* %10, i64 0, i64 %51
  %53 = load float, float* %52, align 4
  %54 = load i32, i32* %9, align 4
  %55 = sext i32 %54 to i64
  %56 = getelementptr inbounds [100 x float], [100 x float]* %11, i64 0, i64 %55
  store float %53, float* %56, align 4
  br label %57

57:                                               ; preds = %34
  %58 = load i32, i32* %9, align 4
  %59 = add nsw i32 %58, 1
  store i32 %59, i32* %9, align 4
  br label %26

60:                                               ; preds = %26
  store float 0.000000e+00, float* %12, align 4
  store i32 0, i32* %9, align 4
  br label %61

61:                                               ; preds = %81, %60
  %62 = load i32, i32* %9, align 4
  %63 = load i32, i32* %8, align 4
  %64 = sext i32 %63 to i64
  %65 = getelementptr inbounds [100 x i32], [100 x i32]* %7, i64 0, i64 %64
  %66 = load i32, i32* %65, align 4
  %67 = sub nsw i32 %66, 1
  %68 = icmp sle i32 %62, %67
  br i1 %68, label %69, label %84

69:                                               ; preds = %61
  %70 = load float, float* %12, align 4
  %71 = load i32, i32* %9, align 4
  %72 = sext i32 %71 to i64
  %73 = getelementptr inbounds [100 x float], [100 x float]* %10, i64 0, i64 %72
  %74 = load float, float* %73, align 4
  %75 = load i32, i32* %9, align 4
  %76 = sext i32 %75 to i64
  %77 = getelementptr inbounds [100 x float], [100 x float]* %11, i64 0, i64 %76
  %78 = load float, float* %77, align 4
  %79 = fdiv float %74, %78
  %80 = fadd float %70, %79
  store float %80, float* %12, align 4
  br label %81

81:                                               ; preds = %69
  %82 = load i32, i32* %9, align 4
  %83 = add nsw i32 %82, 1
  store i32 %83, i32* %9, align 4
  br label %61

84:                                               ; preds = %61
  %85 = load float, float* %12, align 4
  %86 = fpext float %85 to double
  %87 = call i32 (i8*, ...) @printf(i8* getelementptr inbounds ([6 x i8], [6 x i8]* @.str.1, i64 0, i64 0), double %86)
  br label %88

88:                                               ; preds = %84
  %89 = load i32, i32* %8, align 4
  %90 = add nsw i32 %89, 1
  store i32 %90, i32* %8, align 4
  br label %14

91:                                               ; preds = %14
  ret i32 0
}

declare dso_local i32 @__isoc99_scanf(i8*, ...) #1

declare dso_local i32 @printf(i8*, ...) #1


!llvm.module.flags = !{!0}
!llvm.ident = !{!1}

!0 = !{i32 1, !"wchar_size", i32 4}
!1 = !{!"clang version 10.0.0-4ubuntu1 "}
